; ModuleID = 'source-C-CXX/12/1002.c'
source_filename = "source-C-CXX/12/1002.c"
target datalayout = "e-m:e-p270:32:32-p271:32:32-p272:64:64-i64:64-f80:128-n8:16:32:64-S128"
target triple = "x86_64-pc-linux-gnu"

@.str = private unnamed_addr constant [3 x i8] c"%d\00", align 1
@.str.1 = private unnamed_addr constant [4 x i8] c" %d\00", align 1

; Function Attrs: nofree nounwind sspstrong uwtable
define dso_local i32 @main() local_unnamed_addr #0 {
  %1 = alloca i32, align 4
  %2 = alloca [20000 x i32], align 16
  %3 = alloca [20000 x i32], align 16
  %4 = bitcast i32* %1 to i8*
  call void @llvm.lifetime.start.p0i8(i64 4, i8* nonnull %4) #3
  %5 = bitcast [20000 x i32]* %2 to i8*
  call void @llvm.lifetime.start.p0i8(i64 80000, i8* nonnull %5) #3
  %6 = bitcast [20000 x i32]* %3 to i8*
  call void @llvm.lifetime.start.p0i8(i64 80000, i8* nonnull %6) #3
  %7 = call i32 (i8*, ...) @__isoc99_scanf(i8* getelementptr inbounds ([3 x i8], [3 x i8]* @.str, i64 0, i64 0), i32* nonnull %1)
  %8 = getelementptr inbounds [20000 x i32], [20000 x i32]* %2, i64 0, i64 0
  %9 = call i32 (i8*, ...) @__isoc99_scanf(i8* getelementptr inbounds ([3 x i8], [3 x i8]* @.str, i64 0, i64 0), i32* nonnull %8)
  %10 = load i32, i32* %1, align 4, !tbaa !5
  %11 = icmp sgt i32 %10, 1
  br i1 %11, label %12, label %32

12:                                               ; preds = %0, %26
  %13 = phi i64 [ %28, %26 ], [ 1, %0 ]
  %14 = getelementptr inbounds [20000 x i32], [20000 x i32]* %2, i64 0, i64 %13
  %15 = call i32 (i8*, ...) @__isoc99_scanf(i8* getelementptr inbounds ([3 x i8], [3 x i8]* @.str, i64 0, i64 0), i32* nonnull %14)
  %16 = load i32, i32* %14, align 4, !tbaa !5
  br label %17

17:                                               ; preds = %17, %12
  %18 = phi i64 [ %23, %17 ], [ 0, %12 ]
  %19 = getelementptr inbounds [20000 x i32], [20000 x i32]* %2, i64 0, i64 %18
  %20 = load i32, i32* %19, align 4, !tbaa !5
  %21 = sub nsw i32 %16, %20
  %22 = icmp ne i32 %21, 0
  %23 = add nuw nsw i64 %18, 1
  %24 = icmp ult i64 %23, %13
  %25 = select i1 %22, i1 %24, i1 false
  br i1 %25, label %17, label %26, !llvm.loop !9

26:                                               ; preds = %17
  %27 = getelementptr inbounds [20000 x i32], [20000 x i32]* %3, i64 0, i64 %13
  store i32 %21, i32* %27, align 4, !tbaa !5
  %28 = add nuw nsw i64 %13, 1
  %29 = load i32, i32* %1, align 4, !tbaa !5
  %30 = sext i32 %29 to i64
  %31 = icmp slt i64 %28, %30
  br i1 %31, label %12, label %32, !llvm.loop !11

32:                                               ; preds = %26, %0
  %33 = load i32, i32* %8, align 16, !tbaa !5
  %34 = call i32 (i8*, ...) @printf(i8* nonnull dereferenceable(1) getelementptr inbounds ([3 x i8], [3 x i8]* @.str, i64 0, i64 0), i32 %33)
  %35 = load i32, i32* %1, align 4, !tbaa !5
  %36 = icmp sgt i32 %35, 0
  br i1 %36, label %37, label %53

37:                                               ; preds = %32, %48
  %38 = phi i32 [ %49, %48 ], [ %35, %32 ]
  %39 = phi i64 [ %50, %48 ], [ 0, %32 ]
  %40 = getelementptr inbounds [20000 x i32], [20000 x i32]* %3, i64 0, i64 %39
  %41 = load i32, i32* %40, align 4, !tbaa !5
  %42 = icmp eq i32 %41, 0
  br i1 %42, label %48, label %43

43:                                               ; preds = %37
  %44 = getelementptr inbounds [20000 x i32], [20000 x i32]* %2, i64 0, i64 %39
  %45 = load i32, i32* %44, align 4, !tbaa !5
  %46 = call i32 (i8*, ...) @printf(i8* nonnull dereferenceable(1) getelementptr inbounds ([4 x i8], [4 x i8]* @.str.1, i64 0, i64 0), i32 %45)
  %47 = load i32, i32* %1, align 4, !tbaa !5
  br label %48

48:                                               ; preds = %37, %43
  %49 = phi i32 [ %38, %37 ], [ %47, %43 ]
  %50 = add nuw nsw i64 %39, 1
  %51 = sext i32 %49 to i64
  %52 = icmp slt i64 %50, %51
  br i1 %52, label %37, label %53, !llvm.loop !12

53:                                               ; preds = %48, %32
  call void @llvm.lifetime.end.p0i8(i64 80000, i8* nonnull %6) #3
  call void @llvm.lifetime.end.p0i8(i64 80000, i8* nonnull %5) #3
  call void @llvm.lifetime.end.p0i8(i64 4, i8* nonnull %4) #3
  ret i32 0
}

; Function Attrs: argmemonly mustprogress nofree nosync nounwind willreturn
declare void @llvm.lifetime.start.p0i8(i64 immarg, i8* nocapture) #1

; Function Attrs: nofree nounwind
declare noundef i32 @__isoc99_scanf(i8* nocapture noundef readonly, ...) local_unnamed_addr #2

; Function Attrs: nofree nounwind
declare noundef i32 @printf(i8* nocapture noundef readonly, ...) local_unnamed_addr #2

; Function Attrs: argmemonly mustprogress nofree nosync nounwind willreturn
declare void @llvm.lifetime.end.p0i8(i64 immarg, i8* nocapture) #1


!llvm.module.flags = !{!0, !1, !2, !3}
!llvm.ident = !{!4}

!0 = !{i32 1, !"wchar_size", i32 4}
!1 = !{i32 7, !"PIC Level", i32 2}
!2 = !{i32 7, !"PIE Level", i32 2}
!3 = !{i32 7, !"uwtable", i32 1}
!4 = !{!"clang version 13.0.0"}
!5 = !{!6, !6, i64 0}
!6 = !{!"int", !7, i64 0}
!7 = !{!"omnipotent char", !8, i64 0}
!8 = !{!"Simple C/C++ TBAA"}
!9 = distinct !{!9, !10}
!10 = !{!"llvm.loop.mustprogress"}
!11 = distinct !{!11, !10}
!12 = distinct !{!12, !10}
